target datalayout = "e-m:e-p270:32:32-p271:32:32-p272:64:64-i64:64-i128:128-f80:128-n8:16:32:64-S128"
target triple = "x86_64-pc-linux-gnu"

%struct.H5O_shared_t = type { i32, ptr, i32, %union.anon }
%union.anon = type { %struct.H5O_mesg_loc_t }
%struct.H5O_mesg_loc_t = type { i32, i64 }
%struct.H5A_bt2_ud_common_t = type { ptr, ptr, ptr, ptr, i32, i8, i32, ptr, ptr }
%struct.H5A_t = type { %struct.H5O_shared_t, %struct.H5O_loc_t, i8, %struct.H5G_name_t, ptr }
%struct.H5O_loc_t = type { ptr, i64, i8 }
%struct.H5G_name_t = type { ptr, ptr, i32 }
%union.H5O_fheap_id_t = type { i64 }
%struct.H5A_shared_t = type { i8, ptr, i32, ptr, i64, ptr, i64, ptr, i64, i32, i32 }
%struct.H5A_dense_bt2_name_rec_t = type { %union.H5O_fheap_id_t, i8, i32, i32 }
%struct.H5A_bt2_ud_rm_t = type { %struct.H5A_bt2_ud_common_t, i64 }

@H5A_init_g = external global i8, align 1
@H5_libterm_g = external global i8, align 1
@.str = private unnamed_addr constant [102 x i8] c"generated/home/dtcxzyw/WorkSpace/Projects/compilers/llvm-opt-benchmark/bench/hdf5/hdf5/src/H5Adense.c\00", align 1
@H5E_ATTR_g = external global i64, align 8
@H5E_CLOSEERROR_g = external global i64, align 8
@.str.9 = private unnamed_addr constant [47 x i8] c"can't close v2 B-tree for creation order index\00", align 1
@H5E_CANTOPENOBJ_g = external global i64, align 8
@.str.24 = private unnamed_addr constant [50 x i8] c"unable to open v2 B-tree for creation order index\00", align 1
@H5E_CANTREMOVE_g = external global i64, align 8
@.str.29 = private unnamed_addr constant [63 x i8] c"unable to remove attribute from creation order index v2 B-tree\00", align 1
@H5E_CANTDELETE_g = external global i64, align 8
@H5E_CANTFREE_g = external global i64, align 8
@__func__.H5A__dense_remove_bt2_cb = private unnamed_addr constant [25 x i8] c"H5A__dense_remove_bt2_cb\00", align 1
@.str.55 = private unnamed_addr constant [34 x i8] c"unable to delete shared attribute\00", align 1
@.str.56 = private unnamed_addr constant [27 x i8] c"unable to delete attribute\00", align 1
@.str.57 = private unnamed_addr constant [45 x i8] c"unable to remove attribute from fractal heap\00", align 1

; Function Attrs: nounwind uwtable
define internal i32 @H5A__dense_remove_bt2_cb(ptr noundef %0, ptr noundef %1) #0 {
  %3 = alloca ptr, align 8
  %4 = alloca ptr, align 8
  %5 = alloca ptr, align 8
  %6 = alloca ptr, align 8
  %7 = alloca ptr, align 8
  %8 = alloca ptr, align 8
  %9 = alloca i32, align 4
  %10 = alloca i8, align 1
  store ptr %0, ptr %3, align 8, !tbaa !62
  store ptr %1, ptr %4, align 8, !tbaa !62
  call void @llvm.lifetime.start.p0(i64 8, ptr %5) #7
  %11 = load ptr, ptr %3, align 8, !tbaa !62
  store ptr %11, ptr %5, align 8, !tbaa !97
  call void @llvm.lifetime.start.p0(i64 8, ptr %6) #7
  %12 = load ptr, ptr %4, align 8, !tbaa !62
  store ptr %12, ptr %6, align 8, !tbaa !136
  call void @llvm.lifetime.start.p0(i64 8, ptr %7) #7
  %13 = load ptr, ptr %6, align 8, !tbaa !136
  %14 = getelementptr inbounds nuw %struct.H5A_bt2_ud_rm_t, ptr %13, i32 0, i32 0
  %15 = getelementptr inbounds nuw %struct.H5A_bt2_ud_common_t, ptr %14, i32 0, i32 8
  %16 = load ptr, ptr %15, align 8, !tbaa !113
  %17 = load ptr, ptr %16, align 8, !tbaa !46
  store ptr %17, ptr %7, align 8, !tbaa !46
  call void @llvm.lifetime.start.p0(i64 8, ptr %8) #7
  store ptr null, ptr %8, align 8, !tbaa !12
  call void @llvm.lifetime.start.p0(i64 4, ptr %9) #7
  store i32 0, ptr %9, align 4, !tbaa !14
  call void @llvm.lifetime.start.p0(i64 1, ptr %10) #7
  store i8 0, ptr %10, align 1, !tbaa !16
  %18 = load i8, ptr @H5A_init_g, align 1, !tbaa !16, !range !18, !noundef !19
  %19 = trunc i8 %18 to i1
  br i1 %19, label %24, label %20

20:                                               ; preds = %2
  %21 = load i8, ptr @H5_libterm_g, align 1, !tbaa !16, !range !18, !noundef !19
  %22 = trunc i8 %21 to i1
  %23 = xor i1 %22, true
  br label %24

24:                                               ; preds = %20, %2
  %25 = phi i1 [ true, %2 ], [ %23, %20 ]
  %26 = xor i1 %25, true
  %27 = xor i1 %26, true
  %28 = zext i1 %27 to i32
  %29 = sext i32 %28 to i64
  %30 = call i64 @llvm.expect.i64(i64 %29, i64 1)
  %31 = icmp ne i64 %30, 0
  br i1 %31, label %32, label %216

32:                                               ; preds = %24
  %33 = load ptr, ptr %6, align 8, !tbaa !136
  %34 = getelementptr inbounds nuw %struct.H5A_bt2_ud_rm_t, ptr %33, i32 0, i32 1
  %35 = load i64, ptr %34, align 8, !tbaa !114
  %36 = icmp ne i64 %35, -1
  br i1 %36, label %37, label %99

37:                                               ; preds = %32
  %38 = load ptr, ptr %6, align 8, !tbaa !136
  %39 = getelementptr inbounds nuw %struct.H5A_bt2_ud_rm_t, ptr %38, i32 0, i32 0
  %40 = getelementptr inbounds nuw %struct.H5A_bt2_ud_common_t, ptr %39, i32 0, i32 0
  %41 = load ptr, ptr %40, align 8, !tbaa !107
  %42 = load ptr, ptr %6, align 8, !tbaa !136
  %43 = getelementptr inbounds nuw %struct.H5A_bt2_ud_rm_t, ptr %42, i32 0, i32 1
  %44 = load i64, ptr %43, align 8, !tbaa !114
  %45 = call ptr @H5B2_open(ptr noundef %41, i64 noundef %44, ptr noundef null)
  store ptr %45, ptr %8, align 8, !tbaa !12
  %46 = icmp eq ptr null, %45
  br i1 %46, label %47, label %66

47:                                               ; preds = %37
  br label %48

48:                                               ; preds = %47
  br label %49

49:                                               ; preds = %48
  br label %50

50:                                               ; preds = %49
  %51 = load i64, ptr @H5E_ATTR_g, align 8, !tbaa !34
  %52 = load i64, ptr @H5E_CANTOPENOBJ_g, align 8, !tbaa !34
  %53 = call i32 (ptr, ptr, i32, i64, i64, ptr, ...) @H5E_printf_stack(ptr noundef @.str, ptr noundef @__func__.H5A__dense_remove_bt2_cb, i32 noundef 1262, i64 noundef %51, i64 noundef %52, ptr noundef @.str.24)
  br label %54

54:                                               ; preds = %50
  br label %55

55:                                               ; preds = %54
  store i8 1, ptr %10, align 1, !tbaa !16
  %56 = load i8, ptr %10, align 1, !tbaa !16, !range !18, !noundef !19
  %57 = trunc i8 %56 to i1
  %58 = zext i1 %57 to i8
  store i8 %58, ptr %10, align 1, !tbaa !16
  br label %59

59:                                               ; preds = %55
  br label %60

60:                                               ; preds = %59
  br label %61

61:                                               ; preds = %60
  store i32 -1, ptr %9, align 4, !tbaa !14
  br label %192

62:                                               ; No predecessors!
  br label %63

63:                                               ; preds = %62
  br label %64

64:                                               ; preds = %63
  br label %65

65:                                               ; preds = %64
  br label %66

66:                                               ; preds = %65, %37
  %67 = load ptr, ptr %7, align 8, !tbaa !46
  %68 = getelementptr inbounds nuw %struct.H5A_t, ptr %67, i32 0, i32 4
  %69 = load ptr, ptr %68, align 8, !tbaa !65
  %70 = getelementptr inbounds nuw %struct.H5A_shared_t, ptr %69, i32 0, i32 9
  %71 = load i32, ptr %70, align 8, !tbaa !86
  %72 = load ptr, ptr %6, align 8, !tbaa !136
  %73 = getelementptr inbounds nuw %struct.H5A_bt2_ud_rm_t, ptr %72, i32 0, i32 0
  %74 = getelementptr inbounds nuw %struct.H5A_bt2_ud_common_t, ptr %73, i32 0, i32 6
  store i32 %71, ptr %74, align 8, !tbaa !105
  %75 = load ptr, ptr %8, align 8, !tbaa !12
  %76 = load ptr, ptr %6, align 8, !tbaa !136
  %77 = call i32 @H5B2_remove(ptr noundef %75, ptr noundef %76, ptr noundef null, ptr noundef null)
  %78 = icmp slt i32 %77, 0
  br i1 %78, label %79, label %98

79:                                               ; preds = %66
  br label %80

80:                                               ; preds = %79
  br label %81

81:                                               ; preds = %80
  br label %82

82:                                               ; preds = %81
  %83 = load i64, ptr @H5E_ATTR_g, align 8, !tbaa !34
  %84 = load i64, ptr @H5E_CANTREMOVE_g, align 8, !tbaa !34
  %85 = call i32 (ptr, ptr, i32, i64, i64, ptr, ...) @H5E_printf_stack(ptr noundef @.str, ptr noundef @__func__.H5A__dense_remove_bt2_cb, i32 noundef 1270, i64 noundef %83, i64 noundef %84, ptr noundef @.str.29)
  br label %86

86:                                               ; preds = %82
  br label %87

87:                                               ; preds = %86
  store i8 1, ptr %10, align 1, !tbaa !16
  %88 = load i8, ptr %10, align 1, !tbaa !16, !range !18, !noundef !19
  %89 = trunc i8 %88 to i1
  %90 = zext i1 %89 to i8
  store i8 %90, ptr %10, align 1, !tbaa !16
  br label %91

91:                                               ; preds = %87
  br label %92

92:                                               ; preds = %91
  br label %93

93:                                               ; preds = %92
  store i32 -1, ptr %9, align 4, !tbaa !14
  br label %192

94:                                               ; No predecessors!
  br label %95

95:                                               ; preds = %94
  br label %96

96:                                               ; preds = %95
  br label %97

97:                                               ; preds = %96
  br label %98

98:                                               ; preds = %97, %66
  br label %99

99:                                               ; preds = %98, %32
  %100 = load ptr, ptr %5, align 8, !tbaa !97
  %101 = getelementptr inbounds nuw %struct.H5A_dense_bt2_name_rec_t, ptr %100, i32 0, i32 1
  %102 = load i8, ptr %101, align 8, !tbaa !101
  %103 = zext i8 %102 to i32
  %104 = and i32 %103, 2
  %105 = icmp ne i32 %104, 0
  br i1 %105, label %106, label %135

106:                                              ; preds = %99
  %107 = load ptr, ptr %6, align 8, !tbaa !136
  %108 = getelementptr inbounds nuw %struct.H5A_bt2_ud_rm_t, ptr %107, i32 0, i32 0
  %109 = getelementptr inbounds nuw %struct.H5A_bt2_ud_common_t, ptr %108, i32 0, i32 0
  %110 = load ptr, ptr %109, align 8, !tbaa !107
  %111 = load ptr, ptr %7, align 8, !tbaa !46
  %112 = getelementptr inbounds nuw %struct.H5A_t, ptr %111, i32 0, i32 0
  %113 = call i32 @H5SM_delete(ptr noundef %110, ptr noundef null, ptr noundef %112)
  %114 = icmp slt i32 %113, 0
  br i1 %114, label %115, label %134

115:                                              ; preds = %106
  br label %116

116:                                              ; preds = %115
  br label %117

117:                                              ; preds = %116
  br label %118

118:                                              ; preds = %117
  %119 = load i64, ptr @H5E_ATTR_g, align 8, !tbaa !34
  %120 = load i64, ptr @H5E_CANTFREE_g, align 8, !tbaa !34
  %121 = call i32 (ptr, ptr, i32, i64, i64, ptr, ...) @H5E_printf_stack(ptr noundef @.str, ptr noundef @__func__.H5A__dense_remove_bt2_cb, i32 noundef 1277, i64 noundef %119, i64 noundef %120, ptr noundef @.str.55)
  br label %122

122:                                              ; preds = %118
  br label %123

123:                                              ; preds = %122
  store i8 1, ptr %10, align 1, !tbaa !16
  %124 = load i8, ptr %10, align 1, !tbaa !16, !range !18, !noundef !19
  %125 = trunc i8 %124 to i1
  %126 = zext i1 %125 to i8
  store i8 %126, ptr %10, align 1, !tbaa !16
  br label %127

127:                                              ; preds = %123
  br label %128

128:                                              ; preds = %127
  br label %129

129:                                              ; preds = %128
  store i32 -1, ptr %9, align 4, !tbaa !14
  br label %192

130:                                              ; No predecessors!
  br label %131

131:                                              ; preds = %130
  br label %132

132:                                              ; preds = %131
  br label %133

133:                                              ; preds = %132
  br label %134

134:                                              ; preds = %133, %106
  br label %191

135:                                              ; preds = %99
  %136 = load ptr, ptr %6, align 8, !tbaa !136
  %137 = getelementptr inbounds nuw %struct.H5A_bt2_ud_rm_t, ptr %136, i32 0, i32 0
  %138 = getelementptr inbounds nuw %struct.H5A_bt2_ud_common_t, ptr %137, i32 0, i32 0
  %139 = load ptr, ptr %138, align 8, !tbaa !107
  %140 = load ptr, ptr %7, align 8, !tbaa !46
  %141 = call i32 @H5O__attr_delete(ptr noundef %139, ptr noundef null, ptr noundef %140)
  %142 = icmp slt i32 %141, 0
  br i1 %142, label %143, label %162

143:                                              ; preds = %135
  br label %144

144:                                              ; preds = %143
  br label %145

145:                                              ; preds = %144
  br label %146

146:                                              ; preds = %145
  %147 = load i64, ptr @H5E_ATTR_g, align 8, !tbaa !34
  %148 = load i64, ptr @H5E_CANTDELETE_g, align 8, !tbaa !34
  %149 = call i32 (ptr, ptr, i32, i64, i64, ptr, ...) @H5E_printf_stack(ptr noundef @.str, ptr noundef @__func__.H5A__dense_remove_bt2_cb, i32 noundef 1283, i64 noundef %147, i64 noundef %148, ptr noundef @.str.56)
  br label %150

150:                                              ; preds = %146
  br label %151

151:                                              ; preds = %150
  store i8 1, ptr %10, align 1, !tbaa !16
  %152 = load i8, ptr %10, align 1, !tbaa !16, !range !18, !noundef !19
  %153 = trunc i8 %152 to i1
  %154 = zext i1 %153 to i8
  store i8 %154, ptr %10, align 1, !tbaa !16
  br label %155

155:                                              ; preds = %151
  br label %156

156:                                              ; preds = %155
  br label %157

157:                                              ; preds = %156
  store i32 -1, ptr %9, align 4, !tbaa !14
  br label %192

158:                                              ; No predecessors!
  br label %159

159:                                              ; preds = %158
  br label %160

160:                                              ; preds = %159
  br label %161

161:                                              ; preds = %160
  br label %162

162:                                              ; preds = %161, %135
  %163 = load ptr, ptr %6, align 8, !tbaa !136
  %164 = getelementptr inbounds nuw %struct.H5A_bt2_ud_rm_t, ptr %163, i32 0, i32 0
  %165 = getelementptr inbounds nuw %struct.H5A_bt2_ud_common_t, ptr %164, i32 0, i32 1
  %166 = load ptr, ptr %165, align 8, !tbaa !108
  %167 = load ptr, ptr %5, align 8, !tbaa !97
  %168 = getelementptr inbounds nuw %struct.H5A_dense_bt2_name_rec_t, ptr %167, i32 0, i32 0
  %169 = call i32 @H5HF_remove(ptr noundef %166, ptr noundef %168)
  %170 = icmp slt i32 %169, 0
  br i1 %170, label %171, label %190

171:                                              ; preds = %162
  br label %172

172:                                              ; preds = %171
  br label %173

173:                                              ; preds = %172
  br label %174

174:                                              ; preds = %173
  %175 = load i64, ptr @H5E_ATTR_g, align 8, !tbaa !34
  %176 = load i64, ptr @H5E_CANTREMOVE_g, align 8, !tbaa !34
  %177 = call i32 (ptr, ptr, i32, i64, i64, ptr, ...) @H5E_printf_stack(ptr noundef @.str, ptr noundef @__func__.H5A__dense_remove_bt2_cb, i32 noundef 1287, i64 noundef %175, i64 noundef %176, ptr noundef @.str.57)
  br label %178

178:                                              ; preds = %174
  br label %179

179:                                              ; preds = %178
  store i8 1, ptr %10, align 1, !tbaa !16
  %180 = load i8, ptr %10, align 1, !tbaa !16, !range !18, !noundef !19
  %181 = trunc i8 %180 to i1
  %182 = zext i1 %181 to i8
  store i8 %182, ptr %10, align 1, !tbaa !16
  br label %183

183:                                              ; preds = %179
  br label %184

184:                                              ; preds = %183
  br label %185

185:                                              ; preds = %184
  store i32 -1, ptr %9, align 4, !tbaa !14
  br label %192

186:                                              ; No predecessors!
  br label %187

187:                                              ; preds = %186
  br label %188

188:                                              ; preds = %187
  br label %189

189:                                              ; preds = %188
  br label %190

190:                                              ; preds = %189, %162
  br label %191

191:                                              ; preds = %190, %134
  br label %192

192:                                              ; preds = %191, %185, %157, %129, %93, %61
  %193 = load ptr, ptr %8, align 8, !tbaa !12
  %194 = icmp ne ptr %193, null
  br i1 %194, label %195, label %215

195:                                              ; preds = %192
  %196 = load ptr, ptr %8, align 8, !tbaa !12
  %197 = call i32 @H5B2_close(ptr noundef %196)
  %198 = icmp slt i32 %197, 0
  br i1 %198, label %199, label %215

199:                                              ; preds = %195
  br label %200

200:                                              ; preds = %199
  br label %201

201:                                              ; preds = %200
  br label %202

202:                                              ; preds = %201
  %203 = load i64, ptr @H5E_ATTR_g, align 8, !tbaa !34
  %204 = load i64, ptr @H5E_CLOSEERROR_g, align 8, !tbaa !34
  %205 = call i32 (ptr, ptr, i32, i64, i64, ptr, ...) @H5E_printf_stack(ptr noundef @.str, ptr noundef @__func__.H5A__dense_remove_bt2_cb, i32 noundef 1293, i64 noundef %203, i64 noundef %204, ptr noundef @.str.9)
  br label %206

206:                                              ; preds = %202
  br label %207

207:                                              ; preds = %206
  store i8 1, ptr %10, align 1, !tbaa !16
  %208 = load i8, ptr %10, align 1, !tbaa !16, !range !18, !noundef !19
  %209 = trunc i8 %208 to i1
  %210 = zext i1 %209 to i8
  store i8 %210, ptr %10, align 1, !tbaa !16
  br label %211

211:                                              ; preds = %207
  br label %212

212:                                              ; preds = %211
  store i32 -1, ptr %9, align 4, !tbaa !14
  br label %213

213:                                              ; preds = %212
  br label %214

214:                                              ; preds = %213
  br label %215

215:                                              ; preds = %214, %195, %192
  br label %216

216:                                              ; preds = %215, %24
  %217 = load i32, ptr %9, align 4, !tbaa !14
  call void @llvm.lifetime.end.p0(i64 1, ptr %10) #7
  call void @llvm.lifetime.end.p0(i64 4, ptr %9) #7
  call void @llvm.lifetime.end.p0(i64 8, ptr %8) #7
  call void @llvm.lifetime.end.p0(i64 8, ptr %7) #7
  call void @llvm.lifetime.end.p0(i64 8, ptr %6) #7
  call void @llvm.lifetime.end.p0(i64 8, ptr %5) #7
  ret i32 %217
}