; Function Attrs: nounwind uwtable
define internal range(i32 -1, 1) i32 @H5A__dense_remove_bt2_cb(ptr noundef %0, ptr noundef %1) #0 {
  %3 = getelementptr inbounds nuw i8, ptr %1, i64 56
  %4 = load ptr, ptr %3, align 8, !tbaa !93
  %5 = load ptr, ptr %4, align 8, !tbaa !37
  %6 = load i8, ptr @H5A_init_g, align 1, !tbaa !3, !range !7, !noundef !8
  %7 = trunc nuw i8 %6 to i1
  %8 = load i8, ptr @H5_libterm_g, align 1, !range !7
  %9 = trunc nuw i8 %8 to i1
  %10 = xor i1 %9, true
  %11 = select i1 %7, i1 true, i1 %10
  br i1 %11, label %12, label %69, !prof !9

12:                                               ; preds = %2
  %13 = getelementptr inbounds nuw i8, ptr %1, i64 64
  %14 = load i64, ptr %13, align 8, !tbaa !94
  %.not = icmp eq i64 %14, -1
  br i1 %.not, label %33, label %15

15:                                               ; preds = %12
  %16 = load ptr, ptr %1, align 8, !tbaa !87
  %17 = tail call ptr @H5B2_open(ptr noundef %16, i64 noundef %14, ptr noundef null) #7
  %18 = icmp eq ptr %17, null
  br i1 %18, label %.thread, label %22

.thread:                                          ; preds = %15
  %19 = load i64, ptr @H5E_ATTR_g, align 8, !tbaa !27
  %20 = load i64, ptr @H5E_CANTOPENOBJ_g, align 8, !tbaa !27
  %21 = tail call i32 (ptr, ptr, i32, i64, i64, ptr, ...) @H5E_printf_stack(ptr noundef nonnull @.str, ptr noundef nonnull @__func__.H5A__dense_remove_bt2_cb, i32 noundef 1262, i64 noundef %19, i64 noundef %20, ptr noundef nonnull @.str.24) #7
  br label %69

22:                                               ; preds = %15
  %23 = getelementptr inbounds nuw i8, ptr %5, i64 96
  %24 = load ptr, ptr %23, align 8, !tbaa !53
  %25 = getelementptr inbounds nuw i8, ptr %24, i64 72
  %26 = load i32, ptr %25, align 8, !tbaa !72
  %27 = getelementptr inbounds nuw i8, ptr %1, i64 40
  store i32 %26, ptr %27, align 8, !tbaa !85
  %28 = tail call i32 @H5B2_remove(ptr noundef nonnull %17, ptr noundef nonnull %1, ptr noundef null, ptr noundef null) #7
  %29 = icmp slt i32 %28, 0
  br i1 %29, label %.thread35, label %33

.thread35:                                        ; preds = %22
  %30 = load i64, ptr @H5E_ATTR_g, align 8, !tbaa !27
  %31 = load i64, ptr @H5E_CANTREMOVE_g, align 8, !tbaa !27
  %32 = tail call i32 (ptr, ptr, i32, i64, i64, ptr, ...) @H5E_printf_stack(ptr noundef nonnull @.str, ptr noundef nonnull @__func__.H5A__dense_remove_bt2_cb, i32 noundef 1270, i64 noundef %30, i64 noundef %31, ptr noundef nonnull @.str.29) #7
  br label %62

33:                                               ; preds = %22, %12
  %.025 = phi ptr [ %17, %22 ], [ null, %12 ]
  %34 = getelementptr inbounds nuw i8, ptr %0, i64 8
  %35 = load i8, ptr %34, align 8, !tbaa !81
  %36 = and i8 %35, 2
  %.not30 = icmp eq i8 %36, 0
  %37 = load ptr, ptr %1, align 8, !tbaa !87
  br i1 %.not30, label %45, label %38

38:                                               ; preds = %33
  %39 = tail call i32 @H5SM_delete(ptr noundef %37, ptr noundef null, ptr noundef %5) #7
  %40 = icmp slt i32 %39, 0
  br i1 %40, label %41, label %61

41:                                               ; preds = %38
  %42 = load i64, ptr @H5E_ATTR_g, align 8, !tbaa !27
  %43 = load i64, ptr @H5E_CANTFREE_g, align 8, !tbaa !27
  %44 = tail call i32 (ptr, ptr, i32, i64, i64, ptr, ...) @H5E_printf_stack(ptr noundef nonnull @.str, ptr noundef nonnull @__func__.H5A__dense_remove_bt2_cb, i32 noundef 1277, i64 noundef %42, i64 noundef %43, ptr noundef nonnull @.str.55) #7
  br label %61

45:                                               ; preds = %33
  %46 = tail call i32 @H5O__attr_delete(ptr noundef %37, ptr noundef null, ptr noundef %5) #7
  %47 = icmp slt i32 %46, 0
  br i1 %47, label %48, label %52

48:                                               ; preds = %45
  %49 = load i64, ptr @H5E_ATTR_g, align 8, !tbaa !27
  %50 = load i64, ptr @H5E_CANTDELETE_g, align 8, !tbaa !27
  %51 = tail call i32 (ptr, ptr, i32, i64, i64, ptr, ...) @H5E_printf_stack(ptr noundef nonnull @.str, ptr noundef nonnull @__func__.H5A__dense_remove_bt2_cb, i32 noundef 1283, i64 noundef %49, i64 noundef %50, ptr noundef nonnull @.str.56) #7
  br label %61

52:                                               ; preds = %45
  %53 = getelementptr inbounds nuw i8, ptr %1, i64 8
  %54 = load ptr, ptr %53, align 8, !tbaa !88
  %55 = tail call i32 @H5HF_remove(ptr noundef %54, ptr noundef nonnull %0) #7
  %56 = icmp slt i32 %55, 0
  br i1 %56, label %57, label %61

57:                                               ; preds = %52
  %58 = load i64, ptr @H5E_ATTR_g, align 8, !tbaa !27
  %59 = load i64, ptr @H5E_CANTREMOVE_g, align 8, !tbaa !27
  %60 = tail call i32 (ptr, ptr, i32, i64, i64, ptr, ...) @H5E_printf_stack(ptr noundef nonnull @.str, ptr noundef nonnull @__func__.H5A__dense_remove_bt2_cb, i32 noundef 1287, i64 noundef %58, i64 noundef %59, ptr noundef nonnull @.str.57) #7
  br label %61

61:                                               ; preds = %38, %52, %57, %48, %41
  %.1 = phi i32 [ -1, %41 ], [ 0, %38 ], [ -1, %48 ], [ -1, %57 ], [ 0, %52 ]
  %.not31 = icmp eq ptr %.025, null
  br i1 %.not31, label %69, label %62

62:                                               ; preds = %.thread35, %61
  %.140 = phi i32 [ -1, %.thread35 ], [ %.1, %61 ]
  %.12639 = phi ptr [ %17, %.thread35 ], [ %.025, %61 ]
  %63 = tail call i32 @H5B2_close(ptr noundef nonnull %.12639) #7
  %64 = icmp slt i32 %63, 0
  br i1 %64, label %65, label %69

65:                                               ; preds = %62
  %66 = load i64, ptr @H5E_ATTR_g, align 8, !tbaa !27
  %67 = load i64, ptr @H5E_CLOSEERROR_g, align 8, !tbaa !27
  %68 = tail call i32 (ptr, ptr, i32, i64, i64, ptr, ...) @H5E_printf_stack(ptr noundef nonnull @.str, ptr noundef nonnull @__func__.H5A__dense_remove_bt2_cb, i32 noundef 1293, i64 noundef %66, i64 noundef %67, ptr noundef nonnull @.str.9) #7
  br label %69

69:                                               ; preds = %.thread, %61, %62, %65, %2
  %.0 = phi i32 [ -1, %65 ], [ %.140, %62 ], [ %.1, %61 ], [ 0, %2 ], [ -1, %.thread ]
  ret i32 %.0
}